target datalayout = "e-m:e-p270:32:32-p271:32:32-p272:64:64-i64:64-i128:128-f80:128-n8:16:32:64-S128"
target triple = "x86_64-pc-linux-gnu"

%struct.AVCodecContext = type { ptr, i32, i32, ptr, i32, i32, ptr, ptr, ptr, i64, i32, i32, ptr, i32, %struct.AVRational, %struct.AVRational, %struct.AVRational, i32, i32, i32, i32, i32, %struct.AVRational, i32, i32, i32, i32, i32, i32, i32, i32, i32, i32, i32, ptr, ptr, i32, float, float, float, float, float, float, float, float, float, i32, i32, i32, i32, i32, i32, i32, i32, i32, i32, i32, i32, ptr, ptr, ptr, i32, i32, i32, i32, i32, i32, i32, i32, i32, i32, %struct.AVChannelLayout, i32, i32, i32, i32, i32, i32, i32, i32, ptr, i32, i32, i32, float, float, i32, i32, i32, i32, i32, ptr, i64, i64, float, float, i32, i32, ptr, ptr, i32, i32, i32, i32, i32, ptr, ptr, ptr, ptr, i32, i32, [8 x i64], i32, i32, i32, i32, i32, i32, i32, ptr, ptr, i32, i32, i32, i32, i32, i32, i32, i32, i32, i32, ptr, ptr, i32, i32, ptr, ptr, ptr, ptr, i32, i32, i64, i32, i32, i64, ptr, i64, ptr, i32, ptr, i32 }
%struct.AVRational = type { i32, i32 }
%struct.AVChannelLayout = type { i32, i32, %union.anon.0, ptr }
%union.anon.0 = type { i64 }
%struct.WavArcContext = type { ptr, %struct.GetBitContext, i32, i32, i32, i32, i32, i32, ptr, i64, i32, i32, [2 x [70 x i32]], [2 x [70 x i32]], [2 x [640 x i32]], [256 x i8], [257 x i16], i16, i16, i16, i16, i16, i16, [70 x i32], [570 x i32] }
%struct.GetBitContext = type { ptr, ptr, i32, i32, i32 }

; Function Attrs: cold nounwind optsize uwtable
define internal i32 @wavarc_init(ptr noundef %0) #0 {
  %2 = alloca i32, align 4
  %3 = alloca ptr, align 8
  %4 = alloca ptr, align 8
  %5 = alloca i32, align 4
  store ptr %0, ptr %3, align 8, !tbaa !4
  call void @llvm.lifetime.start.p0(i64 8, ptr %4) #9
  %6 = load ptr, ptr %3, align 8, !tbaa !4
  %7 = getelementptr inbounds nuw %struct.AVCodecContext, ptr %6, i32 0, i32 6
  %8 = load ptr, ptr %7, align 8, !tbaa !9
  store ptr %8, ptr %4, align 8, !tbaa !29
  %9 = load ptr, ptr %3, align 8, !tbaa !4
  %10 = getelementptr inbounds nuw %struct.AVCodecContext, ptr %9, i32 0, i32 13
  %11 = load i32, ptr %10, align 8, !tbaa !31
  %12 = icmp slt i32 %11, 52
  br i1 %12, label %13, label %14

13:                                               ; preds = %1
  store i32 -1094995529, ptr %2, align 4
  store i32 1, ptr %5, align 4
  br label %138

14:                                               ; preds = %1
  %15 = load ptr, ptr %3, align 8, !tbaa !4
  %16 = getelementptr inbounds nuw %struct.AVCodecContext, ptr %15, i32 0, i32 12
  %17 = load ptr, ptr %16, align 8, !tbaa !32
  %18 = getelementptr inbounds i8, ptr %17, i64 16
  %19 = load i32, ptr %18, align 1, !tbaa !33
  %20 = icmp ne i32 %19, 1179011410
  br i1 %20, label %21, label %22

21:                                               ; preds = %14
  store i32 -1094995529, ptr %2, align 4
  store i32 1, ptr %5, align 4
  br label %138

22:                                               ; preds = %14
  %23 = load ptr, ptr %3, align 8, !tbaa !4
  %24 = getelementptr inbounds nuw %struct.AVCodecContext, ptr %23, i32 0, i32 12
  %25 = load ptr, ptr %24, align 8, !tbaa !32
  %26 = getelementptr inbounds i8, ptr %25, i64 24
  %27 = load i32, ptr %26, align 1, !tbaa !33
  %28 = icmp ne i32 %27, 1163280727
  br i1 %28, label %29, label %30

29:                                               ; preds = %22
  store i32 -1094995529, ptr %2, align 4
  store i32 1, ptr %5, align 4
  br label %138

30:                                               ; preds = %22
  %31 = load ptr, ptr %3, align 8, !tbaa !4
  %32 = getelementptr inbounds nuw %struct.AVCodecContext, ptr %31, i32 0, i32 12
  %33 = load ptr, ptr %32, align 8, !tbaa !32
  %34 = getelementptr inbounds i8, ptr %33, i64 28
  %35 = load i32, ptr %34, align 1, !tbaa !33
  %36 = icmp ne i32 %35, 544501094
  br i1 %36, label %37, label %38

37:                                               ; preds = %30
  store i32 -1094995529, ptr %2, align 4
  store i32 1, ptr %5, align 4
  br label %138

38:                                               ; preds = %30
  %39 = load ptr, ptr %3, align 8, !tbaa !4
  %40 = getelementptr inbounds nuw %struct.AVCodecContext, ptr %39, i32 0, i32 12
  %41 = load ptr, ptr %40, align 8, !tbaa !32
  %42 = getelementptr inbounds i8, ptr %41, i64 38
  %43 = load i16, ptr %42, align 1, !tbaa !33
  %44 = zext i16 %43 to i32
  %45 = icmp ne i32 %44, 1
  br i1 %45, label %46, label %55

46:                                               ; preds = %38
  %47 = load ptr, ptr %3, align 8, !tbaa !4
  %48 = getelementptr inbounds nuw %struct.AVCodecContext, ptr %47, i32 0, i32 12
  %49 = load ptr, ptr %48, align 8, !tbaa !32
  %50 = getelementptr inbounds i8, ptr %49, i64 38
  %51 = load i16, ptr %50, align 1, !tbaa !33
  %52 = zext i16 %51 to i32
  %53 = icmp ne i32 %52, 2
  br i1 %53, label %54, label %55

54:                                               ; preds = %46
  store i32 -1094995529, ptr %2, align 4
  store i32 1, ptr %5, align 4
  br label %138

55:                                               ; preds = %46, %38
  %56 = load ptr, ptr %3, align 8, !tbaa !4
  %57 = getelementptr inbounds nuw %struct.AVCodecContext, ptr %56, i32 0, i32 71
  call void @av_channel_layout_uninit(ptr noundef %57)
  %58 = load ptr, ptr %3, align 8, !tbaa !4
  %59 = getelementptr inbounds nuw %struct.AVCodecContext, ptr %58, i32 0, i32 71
  %60 = load ptr, ptr %3, align 8, !tbaa !4
  %61 = getelementptr inbounds nuw %struct.AVCodecContext, ptr %60, i32 0, i32 12
  %62 = load ptr, ptr %61, align 8, !tbaa !32
  %63 = getelementptr inbounds i8, ptr %62, i64 38
  %64 = load i16, ptr %63, align 1, !tbaa !33
  %65 = zext i16 %64 to i32
  call void @av_channel_layout_default(ptr noundef %59, i32 noundef %65)
  %66 = load ptr, ptr %3, align 8, !tbaa !4
  %67 = getelementptr inbounds nuw %struct.AVCodecContext, ptr %66, i32 0, i32 12
  %68 = load ptr, ptr %67, align 8, !tbaa !32
  %69 = getelementptr inbounds i8, ptr %68, i64 40
  %70 = load i32, ptr %69, align 1, !tbaa !33
  %71 = load ptr, ptr %3, align 8, !tbaa !4
  %72 = getelementptr inbounds nuw %struct.AVCodecContext, ptr %71, i32 0, i32 69
  store i32 %70, ptr %72, align 8, !tbaa !34
  %73 = load ptr, ptr %3, align 8, !tbaa !4
  %74 = getelementptr inbounds nuw %struct.AVCodecContext, ptr %73, i32 0, i32 71
  %75 = getelementptr inbounds nuw %struct.AVChannelLayout, ptr %74, i32 0, i32 1
  %76 = load i32, ptr %75, align 4, !tbaa !35
  %77 = load ptr, ptr %4, align 8, !tbaa !29
  %78 = getelementptr inbounds nuw %struct.WavArcContext, ptr %77, i32 0, i32 5
  store i32 %76, ptr %78, align 4, !tbaa !36
  %79 = load ptr, ptr %3, align 8, !tbaa !4
  %80 = getelementptr inbounds nuw %struct.AVCodecContext, ptr %79, i32 0, i32 12
  %81 = load ptr, ptr %80, align 8, !tbaa !32
  %82 = getelementptr inbounds i8, ptr %81, i64 50
  %83 = load i16, ptr %82, align 1, !tbaa !33
  %84 = zext i16 %83 to i32
  switch i32 %84, label %95 [
    i32 8, label %85
    i32 16, label %88
  ]

85:                                               ; preds = %55
  %86 = load ptr, ptr %3, align 8, !tbaa !4
  %87 = getelementptr inbounds nuw %struct.AVCodecContext, ptr %86, i32 0, i32 70
  store i32 5, ptr %87, align 4, !tbaa !40
  br label %95

88:                                               ; preds = %55
  %89 = load ptr, ptr %4, align 8, !tbaa !29
  %90 = getelementptr inbounds nuw %struct.WavArcContext, ptr %89, i32 0, i32 5
  %91 = load i32, ptr %90, align 4, !tbaa !36
  %92 = mul nsw i32 %91, 2
  store i32 %92, ptr %90, align 4, !tbaa !36
  %93 = load ptr, ptr %3, align 8, !tbaa !4
  %94 = getelementptr inbounds nuw %struct.AVCodecContext, ptr %93, i32 0, i32 70
  store i32 6, ptr %94, align 4, !tbaa !40
  br label %95

95:                                               ; preds = %55, %88, %85
  %96 = load ptr, ptr %4, align 8, !tbaa !29
  %97 = getelementptr inbounds nuw %struct.WavArcContext, ptr %96, i32 0, i32 2
  store i32 0, ptr %97, align 8, !tbaa !41
  %98 = load ptr, ptr %3, align 8, !tbaa !4
  %99 = getelementptr inbounds nuw %struct.AVCodecContext, ptr %98, i32 0, i32 5
  %100 = load i32, ptr %99, align 4, !tbaa !42
  switch i32 %100, label %116 [
    i32 1498432304, label %101
    i32 1179206705, label %106
    i32 1347179314, label %111
    i32 1347178035, label %111
    i32 1347174708, label %111
    i32 1347175733, label %111
  ]

101:                                              ; preds = %95
  %102 = load ptr, ptr %4, align 8, !tbaa !29
  %103 = getelementptr inbounds nuw %struct.WavArcContext, ptr %102, i32 0, i32 3
  store i32 640, ptr %103, align 4, !tbaa !43
  %104 = load ptr, ptr %4, align 8, !tbaa !29
  %105 = getelementptr inbounds nuw %struct.WavArcContext, ptr %104, i32 0, i32 4
  store i32 0, ptr %105, align 8, !tbaa !44
  br label %117

106:                                              ; preds = %95
  %107 = load ptr, ptr %4, align 8, !tbaa !29
  %108 = getelementptr inbounds nuw %struct.WavArcContext, ptr %107, i32 0, i32 3
  store i32 256, ptr %108, align 4, !tbaa !43
  %109 = load ptr, ptr %4, align 8, !tbaa !29
  %110 = getelementptr inbounds nuw %struct.WavArcContext, ptr %109, i32 0, i32 4
  store i32 4, ptr %110, align 8, !tbaa !44
  br label %117

111:                                              ; preds = %95, %95, %95, %95
  %112 = load ptr, ptr %4, align 8, !tbaa !29
  %113 = getelementptr inbounds nuw %struct.WavArcContext, ptr %112, i32 0, i32 3
  store i32 570, ptr %113, align 4, !tbaa !43
  %114 = load ptr, ptr %4, align 8, !tbaa !29
  %115 = getelementptr inbounds nuw %struct.WavArcContext, ptr %114, i32 0, i32 4
  store i32 70, ptr %115, align 8, !tbaa !44
  br label %117

116:                                              ; preds = %95
  store i32 -1094995529, ptr %2, align 4
  store i32 1, ptr %5, align 4
  br label %138

117:                                              ; preds = %111, %106, %101
  %118 = load ptr, ptr %4, align 8, !tbaa !29
  %119 = getelementptr inbounds nuw %struct.WavArcContext, ptr %118, i32 0, i32 3
  %120 = load i32, ptr %119, align 4, !tbaa !43
  %121 = mul nsw i32 %120, 16
  %122 = sext i32 %121 to i64
  %123 = load ptr, ptr %4, align 8, !tbaa !29
  %124 = getelementptr inbounds nuw %struct.WavArcContext, ptr %123, i32 0, i32 9
  store i64 %122, ptr %124, align 8, !tbaa !45
  %125 = load ptr, ptr %4, align 8, !tbaa !29
  %126 = getelementptr inbounds nuw %struct.WavArcContext, ptr %125, i32 0, i32 9
  %127 = load i64, ptr %126, align 8, !tbaa !45
  %128 = add nsw i64 %127, 64
  %129 = call noalias ptr @av_calloc(i64 noundef %128, i64 noundef 1)
  %130 = load ptr, ptr %4, align 8, !tbaa !29
  %131 = getelementptr inbounds nuw %struct.WavArcContext, ptr %130, i32 0, i32 8
  store ptr %129, ptr %131, align 8, !tbaa !46
  %132 = load ptr, ptr %4, align 8, !tbaa !29
  %133 = getelementptr inbounds nuw %struct.WavArcContext, ptr %132, i32 0, i32 8
  %134 = load ptr, ptr %133, align 8, !tbaa !46
  %135 = icmp ne ptr %134, null
  br i1 %135, label %137, label %136

136:                                              ; preds = %117
  store i32 -12, ptr %2, align 4
  store i32 1, ptr %5, align 4
  br label %138

137:                                              ; preds = %117
  store i32 0, ptr %2, align 4
  store i32 1, ptr %5, align 4
  br label %138

138:                                              ; preds = %137, %136, %116, %54, %37, %29, %21, %13
  call void @llvm.lifetime.end.p0(i64 8, ptr %4) #9
  %139 = load i32, ptr %2, align 4
  ret i32 %139
}