; Function Attrs: cold nounwind optsize uwtable
define internal range(i32 -1094995529, 1) i32 @wavarc_init(ptr noundef %0) #0 {
  %2 = getelementptr inbounds nuw i8, ptr %0, i64 32
  %3 = load ptr, ptr %2, align 8, !tbaa !4
  %4 = getelementptr inbounds nuw i8, ptr %0, i64 80
  %5 = load i32, ptr %4, align 8, !tbaa !27
  %6 = icmp slt i32 %5, 52
  br i1 %6, label %53, label %7

7:                                                ; preds = %1
  %8 = getelementptr inbounds nuw i8, ptr %0, i64 72
  %9 = load ptr, ptr %8, align 8, !tbaa !28
  %10 = getelementptr inbounds nuw i8, ptr %9, i64 16
  %11 = load i32, ptr %10, align 1, !tbaa !29
  %.not = icmp eq i32 %11, 1179011410
  br i1 %.not, label %12, label %53

12:                                               ; preds = %7
  %13 = getelementptr inbounds nuw i8, ptr %9, i64 24
  %14 = load i32, ptr %13, align 1, !tbaa !29
  %.not32 = icmp eq i32 %14, 1163280727
  br i1 %.not32, label %15, label %53

15:                                               ; preds = %12
  %16 = getelementptr inbounds nuw i8, ptr %9, i64 28
  %17 = load i32, ptr %16, align 1, !tbaa !29
  %.not33 = icmp eq i32 %17, 544501094
  br i1 %.not33, label %18, label %53

18:                                               ; preds = %15
  %19 = getelementptr inbounds nuw i8, ptr %9, i64 38
  %20 = load i16, ptr %19, align 1, !tbaa !29
  %.off = add i16 %20, -1
  %switch = icmp ult i16 %.off, 2
  br i1 %switch, label %21, label %53

21:                                               ; preds = %18
  %22 = getelementptr inbounds nuw i8, ptr %0, i64 352
  tail call void @av_channel_layout_uninit(ptr noundef nonnull %22) #7
  %23 = load ptr, ptr %8, align 8, !tbaa !28
  %24 = getelementptr inbounds nuw i8, ptr %23, i64 38
  %25 = load i16, ptr %24, align 1, !tbaa !29
  %26 = zext i16 %25 to i32
  tail call void @av_channel_layout_default(ptr noundef nonnull %22, i32 noundef %26) #7
  %27 = load ptr, ptr %8, align 8, !tbaa !28
  %28 = getelementptr inbounds nuw i8, ptr %27, i64 40
  %29 = load i32, ptr %28, align 1, !tbaa !29
  %30 = getelementptr inbounds nuw i8, ptr %0, i64 344
  store i32 %29, ptr %30, align 8, !tbaa !30
  %31 = getelementptr inbounds nuw i8, ptr %0, i64 356
  %32 = load i32, ptr %31, align 4, !tbaa !31
  %33 = getelementptr inbounds nuw i8, ptr %3, i64 52
  store i32 %32, ptr %33, align 4, !tbaa !32
  %34 = getelementptr inbounds nuw i8, ptr %27, i64 50
  %35 = load i16, ptr %34, align 1, !tbaa !29
  switch i16 %35, label %39 [
    i16 8, label %.sink.split
    i16 16, label %36
  ]

36:                                               ; preds = %21
  %37 = shl nsw i32 %32, 1
  store i32 %37, ptr %33, align 4, !tbaa !32
  br label %.sink.split

.sink.split:                                      ; preds = %21, %36
  %.sink = phi i32 [ 6, %36 ], [ 5, %21 ]
  %38 = getelementptr inbounds nuw i8, ptr %0, i64 348
  store i32 %.sink, ptr %38, align 4, !tbaa !36
  br label %39

39:                                               ; preds = %.sink.split, %21
  %40 = getelementptr inbounds nuw i8, ptr %3, i64 40
  store i32 0, ptr %40, align 8, !tbaa !37
  %41 = getelementptr inbounds nuw i8, ptr %0, i64 28
  %42 = load i32, ptr %41, align 4, !tbaa !38
  switch i32 %42, label %53 [
    i32 1498432304, label %45
    i32 1179206705, label %43
    i32 1347179314, label %44
    i32 1347178035, label %44
    i32 1347174708, label %44
    i32 1347175733, label %44
  ]

43:                                               ; preds = %39
  br label %45

44:                                               ; preds = %39, %39, %39, %39
  br label %45

45:                                               ; preds = %39, %44, %43
  %.sink40 = phi i32 [ 570, %44 ], [ 256, %43 ], [ 640, %39 ]
  %.sink38 = phi i32 [ 70, %44 ], [ 4, %43 ], [ 0, %39 ]
  %46 = phi i64 [ 9120, %44 ], [ 4096, %43 ], [ 10240, %39 ]
  %47 = getelementptr inbounds nuw i8, ptr %3, i64 44
  store i32 %.sink40, ptr %47, align 4, !tbaa !39
  %48 = getelementptr inbounds nuw i8, ptr %3, i64 48
  store i32 %.sink38, ptr %48, align 8, !tbaa !40
  %49 = getelementptr inbounds nuw i8, ptr %3, i64 72
  store i64 %46, ptr %49, align 8, !tbaa !41
  %50 = or disjoint i64 %46, 64
  %51 = tail call noalias ptr @av_calloc(i64 noundef %50, i64 noundef 1) #7
  %52 = getelementptr inbounds nuw i8, ptr %3, i64 64
  store ptr %51, ptr %52, align 8, !tbaa !42
  %.not36 = icmp eq ptr %51, null
  %. = select i1 %.not36, i32 -12, i32 0
  br label %53

53:                                               ; preds = %18, %45, %39, %15, %12, %7, %1
  %.0 = phi i32 [ -1094995529, %1 ], [ -1094995529, %7 ], [ -1094995529, %12 ], [ -1094995529, %15 ], [ -1094995529, %18 ], [ -1094995529, %39 ], [ %., %45 ]
  ret i32 %.0
}